target datalayout = "e-m:e-p270:32:32-p271:32:32-p272:64:64-i64:64-i128:128-f80:128-n8:16:32:64-S128"
target triple = "x86_64-unknown-linux-gnu"

%"class.llvh::SMLoc" = type { ptr }
%"class.hermes::Identifier" = type { ptr }
%"class.hermes::irgen::ESTreeIRGen" = type { ptr, %"class.hermes::IRBuilder", %"class.hermes::IRInstrument", ptr, ptr, ptr, ptr, %"class.hermes::ScopedHashTable", %"class.std::shared_ptr", %"class.hermes::Identifier", %"class.hermes::Identifier", %"class.hermes::Identifier", ptr, ptr, %"class.llvh::DenseMap.2" }
%"class.hermes::IRBuilder" = type { ptr, %"class.llvh::ilist_iterator.0", ptr, %"class.llvh::SMLoc", ptr }
%"class.llvh::ilist_iterator.0" = type { ptr }
%"class.hermes::IRInstrument" = type { i8 }
%"class.hermes::ScopedHashTable" = type { %"class.llvh::DenseMap", ptr }
%"class.llvh::DenseMap" = type <{ ptr, i32, i32, i32, [4 x i8] }>
%"class.std::shared_ptr" = type { %"class.std::__shared_ptr" }
%"class.std::__shared_ptr" = type { ptr, %"class.std::__shared_count" }
%"class.std::__shared_count" = type { ptr }
%"class.llvh::DenseMap.2" = type <{ ptr, i32, i32, i32, [4 x i8] }>
%"struct.hermes::irgen::ESTreeIRGen::IteratorRecord" = type { ptr, ptr }
%class.anon.209 = type { ptr, ptr, ptr }

; Function Attrs: mustprogress nounwind uwtable
define linkonce_odr hidden noundef ptr @_ZN6hermes5irgen11ESTreeIRGen17emitIteratorCloseENS1_14IteratorRecordEb(ptr noundef nonnull align 8 dereferenceable(200) %this, ptr %iteratorRecord.coerce0, ptr %iteratorRecord.coerce1, i1 noundef zeroext %ignoreInnerException) #0 comdat align 2 {
entry:
  %iteratorRecord = alloca %"struct.hermes::irgen::ESTreeIRGen::IteratorRecord", align 8
  %this.addr = alloca ptr, align 8
  %ignoreInnerException.addr = alloca i8, align 1
  %0 = getelementptr inbounds { ptr, ptr }, ptr %iteratorRecord, i32 0, i32 0
  store ptr %iteratorRecord.coerce0, ptr %0, align 8
  %1 = getelementptr inbounds { ptr, ptr }, ptr %iteratorRecord, i32 0, i32 1
  store ptr %iteratorRecord.coerce1, ptr %1, align 8
  store ptr %this, ptr %this.addr, align 8
  %frombool = zext i1 %ignoreInnerException to i8
  store i8 %frombool, ptr %ignoreInnerException.addr, align 1
  %this1 = load ptr, ptr %this.addr, align 8
  %Builder = getelementptr inbounds %"class.hermes::irgen::ESTreeIRGen", ptr %this1, i32 0, i32 1
  %iterStorage = getelementptr inbounds %"struct.hermes::irgen::ESTreeIRGen::IteratorRecord", ptr %iteratorRecord, i32 0, i32 0
  %2 = load ptr, ptr %iterStorage, align 8
  %3 = load i8, ptr %ignoreInnerException.addr, align 1
  %tobool = trunc i8 %3 to i1
  %call = call noundef ptr @_ZN6hermes9IRBuilder23createIteratorCloseInstEPNS_14AllocStackInstEb(ptr noundef nonnull align 8 dereferenceable(40) %Builder, ptr noundef %2, i1 noundef zeroext %tobool)
  %4 = icmp eq ptr %call, null
  br i1 %4, label %cast.end, label %cast.notnull

cast.notnull:                                     ; preds = %entry
  %add.ptr = getelementptr inbounds i8, ptr %call, i64 16
  br label %cast.end

cast.end:                                         ; preds = %cast.notnull, %entry
  %cast.result = phi ptr [ %add.ptr, %cast.notnull ], [ null, %entry ]
  ret ptr %cast.result
}

; Function Attrs: mustprogress nounwind uwtable
define internal void @"_ZZZN6hermes5irgen11ESTreeIRGen17genForOfStatementEPNS_6ESTree18ForOfStatementNodeEENK3$_0clEvENKUlPNS2_4NodeENS0_17ControlFlowChangeEPNS_10BasicBlockEE_clES7_S8_SA_"(ptr noundef nonnull align 8 dereferenceable(24) %this, ptr noundef %0, i32 noundef %cfc, ptr noundef %continueTarget) #0 align 2 {
entry:
  %this.addr = alloca ptr, align 8
  %.addr = alloca ptr, align 8
  %cfc.addr = alloca i32, align 4
  %continueTarget.addr = alloca ptr, align 8
  %agg.tmp = alloca %"struct.hermes::irgen::ESTreeIRGen::IteratorRecord", align 8
  store ptr %this, ptr %this.addr, align 8
  store ptr %0, ptr %.addr, align 8
  store i32 %cfc, ptr %cfc.addr, align 4
  store ptr %continueTarget, ptr %continueTarget.addr, align 8
  %this1 = load ptr, ptr %this.addr, align 8
  %1 = getelementptr inbounds %class.anon.209, ptr %this1, i32 0, i32 0
  %2 = load ptr, ptr %1, align 8
  %3 = load i32, ptr %cfc.addr, align 4
  %cmp = icmp eq i32 %3, 0
  br i1 %cmp, label %if.then, label %lor.lhs.false

lor.lhs.false:                                    ; preds = %entry
  %4 = load ptr, ptr %continueTarget.addr, align 8
  %5 = getelementptr inbounds %class.anon.209, ptr %this1, i32 0, i32 2
  %6 = load ptr, ptr %5, align 8
  %cmp2 = icmp ne ptr %4, %6
  br i1 %cmp2, label %if.then, label %if.end

if.then:                                          ; preds = %lor.lhs.false, %entry
  %7 = getelementptr inbounds %class.anon.209, ptr %this1, i32 0, i32 1
  %8 = load ptr, ptr %7, align 8
  call void @llvm.memcpy.p0.p0.i64(ptr align 8 %agg.tmp, ptr align 8 %8, i64 16, i1 false)
  %9 = getelementptr inbounds { ptr, ptr }, ptr %agg.tmp, i32 0, i32 0
  %10 = load ptr, ptr %9, align 8
  %11 = getelementptr inbounds { ptr, ptr }, ptr %agg.tmp, i32 0, i32 1
  %12 = load ptr, ptr %11, align 8
  %call = call noundef ptr @_ZN6hermes5irgen11ESTreeIRGen17emitIteratorCloseENS1_14IteratorRecordEb(ptr noundef nonnull align 8 dereferenceable(200) %2, ptr %10, ptr %12, i1 noundef zeroext false)
  br label %if.end

if.end:                                           ; preds = %if.then, %lor.lhs.false
  ret void
}

; Function Attrs: mustprogress nounwind uwtable
define linkonce_odr noundef ptr @_ZNKSt9_Any_data9_M_accessEv(ptr noundef nonnull align 8 dereferenceable(16) %this) #0 comdat align 2 {
entry:
  %this.addr = alloca ptr, align 8
  store ptr %this, ptr %this.addr, align 8
  %this1 = load ptr, ptr %this.addr, align 8
  %arrayidx = getelementptr inbounds [16 x i8], ptr %this1, i64 0, i64 0
  ret ptr %arrayidx
}

; Function Attrs: mustprogress nounwind uwtable
define internal void @"_ZSt13__invoke_implIvRZZN6hermes5irgen11ESTreeIRGen17genForOfStatementEPNS0_6ESTree18ForOfStatementNodeEENK3$_0clEvEUlPNS3_4NodeENS1_17ControlFlowChangeEPNS0_10BasicBlockEE_JS8_S9_SB_EET_St14__invoke_otherOT0_DpOT1_"(ptr noundef nonnull align 8 dereferenceable(24) %__f, ptr noundef nonnull align 8 dereferenceable(8) %__args, ptr noundef nonnull align 4 dereferenceable(4) %__args1, ptr noundef nonnull align 8 dereferenceable(8) %__args3) #0 {
entry:
  %__f.addr = alloca ptr, align 8
  %__args.addr = alloca ptr, align 8
  %__args.addr2 = alloca ptr, align 8
  %__args.addr4 = alloca ptr, align 8
  store ptr %__f, ptr %__f.addr, align 8
  store ptr %__args, ptr %__args.addr, align 8
  store ptr %__args1, ptr %__args.addr2, align 8
  store ptr %__args3, ptr %__args.addr4, align 8
  %0 = load ptr, ptr %__f.addr, align 8
  %1 = load ptr, ptr %__args.addr, align 8
  %2 = load ptr, ptr %1, align 8
  %3 = load ptr, ptr %__args.addr2, align 8
  %4 = load i32, ptr %3, align 4
  %5 = load ptr, ptr %__args.addr4, align 8
  %6 = load ptr, ptr %5, align 8
  call void @"_ZZZN6hermes5irgen11ESTreeIRGen17genForOfStatementEPNS_6ESTree18ForOfStatementNodeEENK3$_0clEvENKUlPNS2_4NodeENS0_17ControlFlowChangeEPNS_10BasicBlockEE_clES7_S8_SA_"(ptr noundef nonnull align 8 dereferenceable(24) %0, ptr noundef %2, i32 noundef %4, ptr noundef %6)
  ret void
}

; Function Attrs: mustprogress nounwind uwtable
define internal noundef nonnull align 8 dereferenceable(8) ptr @"_ZNKSt9_Any_data9_M_accessIPZZN6hermes5irgen11ESTreeIRGen17genForOfStatementEPNS1_6ESTree18ForOfStatementNodeEENK3$_0clEvEUlPNS4_4NodeENS2_17ControlFlowChangeEPNS1_10BasicBlockEE_EERKT_v"(ptr noundef nonnull align 8 dereferenceable(16) %this) #0 align 2 {
entry:
  %this.addr = alloca ptr, align 8
  store ptr %this, ptr %this.addr, align 8
  %this1 = load ptr, ptr %this.addr, align 8
  %call = call noundef ptr @_ZNKSt9_Any_data9_M_accessEv(ptr noundef nonnull align 8 dereferenceable(16) %this1) #8
  ret ptr %call
}

; Function Attrs: mustprogress nounwind uwtable
define internal void @"_ZSt10__invoke_rIvRZZN6hermes5irgen11ESTreeIRGen17genForOfStatementEPNS0_6ESTree18ForOfStatementNodeEENK3$_0clEvEUlPNS3_4NodeENS1_17ControlFlowChangeEPNS0_10BasicBlockEE_JS8_S9_SB_EENSt9enable_ifIX16is_invocable_r_vIT_T0_DpT1_EESF_E4typeEOSG_DpOSH_"(ptr noundef nonnull align 8 dereferenceable(24) %__fn, ptr noundef nonnull align 8 dereferenceable(8) %__args, ptr noundef nonnull align 4 dereferenceable(4) %__args1, ptr noundef nonnull align 8 dereferenceable(8) %__args3) #0 {
entry:
  %__fn.addr = alloca ptr, align 8
  %__args.addr = alloca ptr, align 8
  %__args.addr2 = alloca ptr, align 8
  %__args.addr4 = alloca ptr, align 8
  store ptr %__fn, ptr %__fn.addr, align 8
  store ptr %__args, ptr %__args.addr, align 8
  store ptr %__args1, ptr %__args.addr2, align 8
  store ptr %__args3, ptr %__args.addr4, align 8
  %0 = load ptr, ptr %__fn.addr, align 8
  %1 = load ptr, ptr %__args.addr, align 8
  %2 = load ptr, ptr %__args.addr2, align 8
  %3 = load ptr, ptr %__args.addr4, align 8
  call void @"_ZSt13__invoke_implIvRZZN6hermes5irgen11ESTreeIRGen17genForOfStatementEPNS0_6ESTree18ForOfStatementNodeEENK3$_0clEvEUlPNS3_4NodeENS1_17ControlFlowChangeEPNS0_10BasicBlockEE_JS8_S9_SB_EET_St14__invoke_otherOT0_DpOT1_"(ptr noundef nonnull align 8 dereferenceable(24) %0, ptr noundef nonnull align 8 dereferenceable(8) %1, ptr noundef nonnull align 4 dereferenceable(4) %2, ptr noundef nonnull align 8 dereferenceable(8) %3)
  ret void
}

; Function Attrs: mustprogress nounwind uwtable
define internal noundef ptr @"_ZNSt14_Function_base13_Base_managerIZZN6hermes5irgen11ESTreeIRGen17genForOfStatementEPNS1_6ESTree18ForOfStatementNodeEENK3$_0clEvEUlPNS4_4NodeENS2_17ControlFlowChangeEPNS1_10BasicBlockEE_E14_M_get_pointerERKSt9_Any_data"(ptr noundef nonnull align 8 dereferenceable(16) %__source) #0 align 2 {
entry:
  %__source.addr = alloca ptr, align 8
  store ptr %__source, ptr %__source.addr, align 8
  %0 = load ptr, ptr %__source.addr, align 8
  %call = call noundef nonnull align 8 dereferenceable(8) ptr @"_ZNKSt9_Any_data9_M_accessIPZZN6hermes5irgen11ESTreeIRGen17genForOfStatementEPNS1_6ESTree18ForOfStatementNodeEENK3$_0clEvEUlPNS4_4NodeENS2_17ControlFlowChangeEPNS1_10BasicBlockEE_EERKT_v"(ptr noundef nonnull align 8 dereferenceable(16) %0) #8
  %1 = load ptr, ptr %call, align 8
  ret ptr %1
}

; Function Attrs: mustprogress nounwind uwtable
define internal void @"_ZNSt17_Function_handlerIFvPN6hermes6ESTree4NodeENS0_5irgen17ControlFlowChangeEPNS0_10BasicBlockEEZZNS4_11ESTreeIRGen17genForOfStatementEPNS1_18ForOfStatementNodeEENK3$_0clEvEUlS3_S5_S7_E_E9_M_invokeERKSt9_Any_dataOS3_OS5_OS7_"(ptr noundef nonnull align 8 dereferenceable(16) %__functor, ptr noundef nonnull align 8 dereferenceable(8) %__args, ptr noundef nonnull align 4 dereferenceable(4) %__args1, ptr noundef nonnull align 8 dereferenceable(8) %__args3) #0 align 2 {
entry:
  %__functor.addr = alloca ptr, align 8
  %__args.addr = alloca ptr, align 8
  %__args.addr2 = alloca ptr, align 8
  %__args.addr4 = alloca ptr, align 8
  store ptr %__functor, ptr %__functor.addr, align 8
  store ptr %__args, ptr %__args.addr, align 8
  store ptr %__args1, ptr %__args.addr2, align 8
  store ptr %__args3, ptr %__args.addr4, align 8
  %0 = load ptr, ptr %__functor.addr, align 8
  %call = call noundef ptr @"_ZNSt14_Function_base13_Base_managerIZZN6hermes5irgen11ESTreeIRGen17genForOfStatementEPNS1_6ESTree18ForOfStatementNodeEENK3$_0clEvEUlPNS4_4NodeENS2_17ControlFlowChangeEPNS1_10BasicBlockEE_E14_M_get_pointerERKSt9_Any_data"(ptr noundef nonnull align 8 dereferenceable(16) %0) #8
  %1 = load ptr, ptr %__args.addr, align 8
  %2 = load ptr, ptr %__args.addr2, align 8
  %3 = load ptr, ptr %__args.addr4, align 8
  call void @"_ZSt10__invoke_rIvRZZN6hermes5irgen11ESTreeIRGen17genForOfStatementEPNS0_6ESTree18ForOfStatementNodeEENK3$_0clEvEUlPNS3_4NodeENS1_17ControlFlowChangeEPNS0_10BasicBlockEE_JS8_S9_SB_EENSt9enable_ifIX16is_invocable_r_vIT_T0_DpT1_EESF_E4typeEOSG_DpOSH_"(ptr noundef nonnull align 8 dereferenceable(24) %call, ptr noundef nonnull align 8 dereferenceable(8) %1, ptr noundef nonnull align 4 dereferenceable(4) %2, ptr noundef nonnull align 8 dereferenceable(8) %3)
  ret void
}