; Function Attrs: mustprogress nounwind uwtable
define internal void @"_ZNSt17_Function_handlerIFvPN6hermes6ESTree4NodeENS0_5irgen17ControlFlowChangeEPNS0_10BasicBlockEEZZNS4_11ESTreeIRGen17genForOfStatementEPNS1_18ForOfStatementNodeEENK3$_0clEvEUlS3_S5_S7_E_E9_M_invokeERKSt9_Any_dataOS3_OS5_OS7_"(ptr noundef nonnull readonly align 8 captures(none) dereferenceable(16) %__functor, ptr nonnull readnone align 8 captures(none) %__args, ptr noundef nonnull readonly align 4 captures(none) dereferenceable(4) %__args1, ptr noundef nonnull readonly align 8 captures(none) dereferenceable(8) %__args3) #0 align 2 {
entry:
  %__functor.val = load ptr, ptr %__functor, align 8
  %__args1.val = load i32, ptr %__args1, align 4
  %__args3.val = load ptr, ptr %__args3, align 8
  %cmp.i.i.i = icmp ne i32 %__args1.val, 0
  %0 = getelementptr inbounds nuw i8, ptr %__functor.val, i64 16
  %1 = load ptr, ptr %0, align 8
  %cmp2.not.i.i.i = icmp eq ptr %__args3.val, %1
  %or.cond.i.i.i = select i1 %cmp.i.i.i, i1 %cmp2.not.i.i.i, i1 false
  br i1 %or.cond.i.i.i, label %"_ZSt10__invoke_rIvRZZN6hermes5irgen11ESTreeIRGen17genForOfStatementEPNS0_6ESTree18ForOfStatementNodeEENK3$_0clEvEUlPNS3_4NodeENS1_17ControlFlowChangeEPNS0_10BasicBlockEE_JS8_S9_SB_EENSt9enable_ifIX16is_invocable_r_vIT_T0_DpT1_EESF_E4typeEOSG_DpOSH_.exit", label %if.then.i.i.i

if.then.i.i.i:                                    ; preds = %entry
  %2 = load ptr, ptr %__functor.val, align 8
  %3 = getelementptr inbounds nuw i8, ptr %__functor.val, i64 8
  %4 = load ptr, ptr %3, align 8
  %agg.tmp.sroa.0.0.copyload.i.i.i = load ptr, ptr %4, align 8
  %Builder.i.i.i.i = getelementptr inbounds nuw i8, ptr %2, i64 8
  %call.i.i.i.i = tail call noundef ptr @_ZN6hermes9IRBuilder23createIteratorCloseInstEPNS_14AllocStackInstEb(ptr noundef nonnull align 8 dereferenceable(40) %Builder.i.i.i.i, ptr noundef %agg.tmp.sroa.0.0.copyload.i.i.i, i1 noundef zeroext false) #8
  br label %"_ZSt10__invoke_rIvRZZN6hermes5irgen11ESTreeIRGen17genForOfStatementEPNS0_6ESTree18ForOfStatementNodeEENK3$_0clEvEUlPNS3_4NodeENS1_17ControlFlowChangeEPNS0_10BasicBlockEE_JS8_S9_SB_EENSt9enable_ifIX16is_invocable_r_vIT_T0_DpT1_EESF_E4typeEOSG_DpOSH_.exit"

"_ZSt10__invoke_rIvRZZN6hermes5irgen11ESTreeIRGen17genForOfStatementEPNS0_6ESTree18ForOfStatementNodeEENK3$_0clEvEUlPNS3_4NodeENS1_17ControlFlowChangeEPNS0_10BasicBlockEE_JS8_S9_SB_EENSt9enable_ifIX16is_invocable_r_vIT_T0_DpT1_EESF_E4typeEOSG_DpOSH_.exit": ; preds = %entry, %if.then.i.i.i
  ret void
}